(dp0
VGogobot
p1
I3565672
sVVacation
p2
I3688783
sVMinspotim 
p3
I11019816
sVSick
p4
I8875744
sVUV team
p5
I10826968
sVAPD-BTM
p6
I8619837
sVGeneral
p7
I3565909
sVSportwize
p8
I7293429
sVWoobi
p9
I21378093
sVPerception-Point
p10
I25881463
sV90Minutes (former FTBpro)
p11
I3567245
sVAGT
p12
I14315590
sVUpsolver
p13
I10567475
sVPre-Sale
p14
I9986559
sVMobli
p15
I12967571
sVCheckPoint - Mobile Security
p16
I16975923
sVRadBee
p17
I15804741
sVMDX
p18
I11685327
sVAnimaBio
p19
I13517614
sVMM3.0 - Oren Bregman
p20
I4040349
sVTwist Bioscience
p21
I29783445
sVPayPal Israel
p22
I20586575
sVCheckPoint - MIS
p23
I4058047
sVMiluim
p24
I8875738
sVkopter.io
p25
I24757708
sVWeSee
p26
I11288022
sVRoomer
p27
I10358972
sVPier39 - Eyal Dvir
p28
I4820438
sVmobli
p29
I13528151
sVUnpakt / Rails
p30
I10757588
sVEtribez
p31
I11646748
sV90min JIRA
p32
I9144130
sVHexagon
p33
I14915367
sVCyberInt
p34
I11019842
sVC4security
p35
I3782512
sVCisco
p36
I3565652
sVBigData team
p37
I9706025
sVTabTale
p38
I3745731
sVPerion
p39
I14314139
sVBitwine
p40
I3954406
sVSpot.IM
p41
I9705556
sVRSA
p42
I14060860
sVAirPair
p43
I10224255
sVExLibris
p44
I9485585
sVTapingo
p45
I12500606
sVShowBox
p46
I12973004
sVTwistBioscience
p47
I19166565
sVKilometer.io
p48
I14012154
sVElsevier
p49
I24198767
sVHopOn
p50
I3565645
sVPuppet XPI - Yaniv Paz
p51
I7689931
sVShowbox
p52
I13527000
s.